target datalayout = "e-m:e-p270:32:32-p271:32:32-p272:64:64-i64:64-i128:128-f80:128-n8:16:32:64-S128"
target triple = "x86_64-pc-linux-gnu"

%struct.UnsharpFilterParam = type { i32, i32, i32, i32, i32, i32, i32, ptr, ptr }

; Function Attrs: nounwind uwtable
define internal void @free_filter_param(ptr noundef %0, i32 noundef %1) #1 {
  %3 = alloca ptr, align 8
  %4 = alloca i32, align 4
  %5 = alloca i32, align 4
  store ptr %0, ptr %3, align 8, !tbaa !73
  store i32 %1, ptr %4, align 4, !tbaa !32
  call void @llvm.lifetime.start.p0(i64 4, ptr %5) #8
  %6 = load ptr, ptr %3, align 8, !tbaa !73
  %7 = getelementptr inbounds nuw %struct.UnsharpFilterParam, ptr %6, i32 0, i32 8
  %8 = load ptr, ptr %7, align 8, !tbaa !89
  %9 = icmp ne ptr %8, null
  br i1 %9, label %10, label %33

10:                                               ; preds = %2
  store i32 0, ptr %5, align 4, !tbaa !32
  br label %11

11:                                               ; preds = %27, %10
  %12 = load i32, ptr %5, align 4, !tbaa !32
  %13 = load ptr, ptr %3, align 8, !tbaa !73
  %14 = getelementptr inbounds nuw %struct.UnsharpFilterParam, ptr %13, i32 0, i32 4
  %15 = load i32, ptr %14, align 8, !tbaa !97
  %16 = mul nsw i32 2, %15
  %17 = load i32, ptr %4, align 4, !tbaa !32
  %18 = mul nsw i32 %16, %17
  %19 = icmp slt i32 %12, %18
  br i1 %19, label %20, label %30

20:                                               ; preds = %11
  %21 = load ptr, ptr %3, align 8, !tbaa !73
  %22 = getelementptr inbounds nuw %struct.UnsharpFilterParam, ptr %21, i32 0, i32 8
  %23 = load ptr, ptr %22, align 8, !tbaa !89
  %24 = load i32, ptr %5, align 4, !tbaa !32
  %25 = sext i32 %24 to i64
  %26 = getelementptr inbounds ptr, ptr %23, i64 %25
  call void @av_freep(ptr noundef %26)
  br label %27

27:                                               ; preds = %20
  %28 = load i32, ptr %5, align 4, !tbaa !32
  %29 = add nsw i32 %28, 1
  store i32 %29, ptr %5, align 4, !tbaa !32
  br label %11, !llvm.loop !117

30:                                               ; preds = %11
  %31 = load ptr, ptr %3, align 8, !tbaa !73
  %32 = getelementptr inbounds nuw %struct.UnsharpFilterParam, ptr %31, i32 0, i32 8
  call void @av_freep(ptr noundef %32)
  br label %33

33:                                               ; preds = %30, %2
  %34 = load ptr, ptr %3, align 8, !tbaa !73
  %35 = getelementptr inbounds nuw %struct.UnsharpFilterParam, ptr %34, i32 0, i32 7
  call void @av_freep(ptr noundef %35)
  call void @llvm.lifetime.end.p0(i64 4, ptr %5) #8
  ret void
}